(dp0
S'Will'
p1
(dp2
S'digit4attempted'
p3
I2
sS'digit8attempted'
p4
I4
sS'digit7attempted'
p5
I6
sS'digit2attempted'
p6
I4
sS'login_count'
p7
I36
sS'digit6attempted'
p8
I4
sS'digit5attempted'
p9
I3
sS'digit0attempted'
p10
I3
sS'digit9attempted'
p11
I5
sS'digit3attempted'
p12
I1
sS'digit1attempted'
p13
I4
ssS'Grace'
p14
(dp15
S'login_count'
p16
I1
sS'digit6attempted'
p17
I1
ssS'jj'
p18
(dp19
S'digit1attempted'
p20
I1
sS'login_count'
p21
I1
ss.